target datalayout = "e-m:e-p270:32:32-p271:32:32-p272:64:64-i64:64-i128:128-f80:128-n8:16:32:64-S128"
target triple = "x86_64-pc-linux-gnu"

%struct.strbuf = type { i64, i64, ptr }
%struct.ls_tree_options = type { i8, i32, i32, %struct.pathspec, ptr, ptr }
%struct.pathspec = type { i32, i8, i32, i32, ptr }

@the_repository = external global ptr, align 8
@.str.48 = private unnamed_addr constant [12 x i8] c"%06o %s %s\09\00", align 1

; Function Attrs: inlinehint nounwind uwtable
define internal i32 @object_type(i32 noundef %0) #4 {
  %2 = alloca i32, align 4
  store i32 %0, ptr %2, align 4, !tbaa !4
  %3 = load i32, ptr %2, align 4, !tbaa !4
  %4 = and i32 %3, 61440
  %5 = icmp eq i32 %4, 16384
  br i1 %5, label %6, label %7

6:                                                ; preds = %1
  br label %12

7:                                                ; preds = %1
  %8 = load i32, ptr %2, align 4, !tbaa !4
  %9 = and i32 %8, 61440
  %10 = icmp eq i32 %9, 57344
  %11 = select i1 %10, i32 1, i32 3
  br label %12

12:                                               ; preds = %7, %6
  %13 = phi i32 [ 2, %6 ], [ %11, %7 ]
  ret i32 %13
}

; Function Attrs: nounwind uwtable
define internal i32 @show_tree_default(ptr noundef %0, ptr noundef %1, ptr noundef %2, i32 noundef %3, ptr noundef %4) #0 {
  %6 = alloca i32, align 4
  %7 = alloca ptr, align 8
  %8 = alloca ptr, align 8
  %9 = alloca ptr, align 8
  %10 = alloca i32, align 4
  %11 = alloca ptr, align 8
  %12 = alloca ptr, align 8
  %13 = alloca i32, align 4
  %14 = alloca i32, align 4
  %15 = alloca i32, align 4
  %16 = alloca i32, align 4
  store ptr %0, ptr %7, align 8, !tbaa !55
  store ptr %1, ptr %8, align 8, !tbaa !57
  store ptr %2, ptr %9, align 8, !tbaa !11
  store i32 %3, ptr %10, align 4, !tbaa !4
  store ptr %4, ptr %11, align 8, !tbaa !16
  call void @llvm.lifetime.start.p0(i64 8, ptr %12) #9
  %17 = load ptr, ptr %11, align 8, !tbaa !16
  store ptr %17, ptr %12, align 8, !tbaa !59
  call void @llvm.lifetime.start.p0(i64 4, ptr %13) #9
  call void @llvm.lifetime.start.p0(i64 4, ptr %14) #9
  call void @llvm.lifetime.start.p0(i64 4, ptr %15) #9
  %18 = load i32, ptr %10, align 4, !tbaa !4
  %19 = call i32 @object_type(i32 noundef %18)
  store i32 %19, ptr %15, align 4, !tbaa !4
  %20 = load ptr, ptr %12, align 8, !tbaa !59
  %21 = load ptr, ptr %8, align 8, !tbaa !57
  %22 = load ptr, ptr %9, align 8, !tbaa !11
  %23 = load i32, ptr %15, align 4, !tbaa !4
  %24 = call i32 @show_tree_common(ptr noundef %20, ptr noundef %14, ptr noundef %21, ptr noundef %22, i32 noundef %23)
  store i32 %24, ptr %13, align 4, !tbaa !4
  %25 = load i32, ptr %13, align 4, !tbaa !4
  %26 = icmp sge i32 %25, 0
  br i1 %26, label %27, label %29

27:                                               ; preds = %5
  %28 = load i32, ptr %13, align 4, !tbaa !4
  store i32 %28, ptr %6, align 4
  store i32 1, ptr %16, align 4
  br label %48

29:                                               ; preds = %5
  %30 = load i32, ptr %10, align 4, !tbaa !4
  %31 = load i32, ptr %10, align 4, !tbaa !4
  %32 = call i32 @object_type(i32 noundef %31)
  %33 = call ptr @type_name(i32 noundef %32)
  %34 = load ptr, ptr @the_repository, align 8, !tbaa !13
  %35 = load ptr, ptr %7, align 8, !tbaa !55
  %36 = load ptr, ptr %12, align 8, !tbaa !59
  %37 = getelementptr inbounds nuw %struct.ls_tree_options, ptr %36, i32 0, i32 1
  %38 = load i32, ptr %37, align 4, !tbaa !65
  %39 = call ptr @repo_find_unique_abbrev(ptr noundef %34, ptr noundef %35, i32 noundef %38)
  %40 = call i32 (ptr, ...) @printf(ptr noundef @.str.48, i32 noundef %30, ptr noundef %33, ptr noundef %39)
  %41 = load ptr, ptr %12, align 8, !tbaa !59
  %42 = load ptr, ptr %8, align 8, !tbaa !57
  %43 = load ptr, ptr %9, align 8, !tbaa !11
  %44 = load ptr, ptr %8, align 8, !tbaa !57
  %45 = getelementptr inbounds nuw %struct.strbuf, ptr %44, i32 0, i32 1
  %46 = load i64, ptr %45, align 8, !tbaa !63
  call void @show_tree_common_default_long(ptr noundef %41, ptr noundef %42, ptr noundef %43, i64 noundef %46)
  %47 = load i32, ptr %14, align 4, !tbaa !4
  store i32 %47, ptr %6, align 4
  store i32 1, ptr %16, align 4
  br label %48

48:                                               ; preds = %29, %27
  call void @llvm.lifetime.end.p0(i64 4, ptr %15) #9
  call void @llvm.lifetime.end.p0(i64 4, ptr %14) #9
  call void @llvm.lifetime.end.p0(i64 4, ptr %13) #9
  call void @llvm.lifetime.end.p0(i64 8, ptr %12) #9
  %49 = load i32, ptr %6, align 4
  ret i32 %49
}