; Function Attrs: nounwind uwtable
define internal i32 @show_tree_default(ptr noundef %0, ptr noundef %1, ptr noundef %2, i32 noundef %3, ptr noundef readonly captures(none) %4) #0 {
  %6 = alloca i32, align 4
  call void @llvm.lifetime.start.p0(i64 4, ptr nonnull %6) #13
  %7 = and i32 %3, 61440
  %8 = icmp eq i32 %7, 16384
  %9 = icmp eq i32 %7, 57344
  %10 = select i1 %9, i32 1, i32 3
  %11 = select i1 %8, i32 2, i32 %10
  %12 = call fastcc i32 @show_tree_common(ptr noundef %4, ptr noundef %6, ptr noundef %1, ptr noundef %2, i32 noundef %11)
  %13 = icmp sgt i32 %12, -1
  br i1 %13, label %24, label %14

14:                                               ; preds = %5
  %15 = tail call ptr @type_name(i32 noundef %11) #13
  %16 = load ptr, ptr @the_repository, align 8, !tbaa !22
  %17 = getelementptr inbounds nuw i8, ptr %4, i64 4
  %18 = load i32, ptr %17, align 4, !tbaa !53
  %19 = tail call ptr @repo_find_unique_abbrev(ptr noundef %16, ptr noundef %0, i32 noundef %18) #13
  %20 = tail call i32 (ptr, ...) @printf(ptr noundef nonnull dereferenceable(1) @.str.48, i32 noundef %3, ptr noundef %15, ptr noundef %19)
  %21 = getelementptr inbounds nuw i8, ptr %1, i64 8
  %22 = load i64, ptr %21, align 8, !tbaa !47
  tail call fastcc void @show_tree_common_default_long(ptr noundef %4, ptr noundef %1, ptr noundef %2, i64 noundef %22)
  %23 = load i32, ptr %6, align 4, !tbaa !4
  br label %24

24:                                               ; preds = %5, %14
  %.0 = phi i32 [ %23, %14 ], [ %12, %5 ]
  call void @llvm.lifetime.end.p0(i64 4, ptr nonnull %6) #13
  ret i32 %.0
}